target datalayout = "e-m:e-p270:32:32-p271:32:32-p272:64:64-i64:64-i128:128-f80:128-n8:16:32:64-S128"
target triple = "x86_64-pc-linux-gnu"

%struct.FFHWBaseEncodePicture = type { ptr, ptr, ptr, i64, i64, i64, i64, i32, ptr, ptr, i32, i32, i32, i32, ptr, ptr, i32, i32, [16 x ptr], [2 x i32], [2 x [2 x ptr]], ptr, [2 x i32], [2 x i32] }

@.str = private unnamed_addr constant [30 x i8] c"Assertion %s failed at %s:%d\0A\00", align 1
@.str.2 = private unnamed_addr constant [28 x i8] c"libavcodec/hw_base_encode.c\00", align 1
@.str.27 = private unnamed_addr constant [14 x i8] c"pic != target\00", align 1
@.str.28 = private unnamed_addr constant [43 x i8] c"pic->nb_refs[0] < 2 && pic->nb_refs[1] < 2\00", align 1
@.str.29 = private unnamed_addr constant [22 x i8] c"pic->nb_dpb_pics < 16\00", align 1
@.str.30 = private unnamed_addr constant [11 x i8] c"!pic->prev\00", align 1

; Function Attrs: nounwind uwtable
define internal void @hw_base_encode_add_ref(ptr noundef %0, ptr noundef %1, i32 noundef %2, i32 noundef %3, i32 noundef %4) #0 {
  %6 = alloca ptr, align 8
  %7 = alloca ptr, align 8
  %8 = alloca i32, align 4
  %9 = alloca i32, align 4
  %10 = alloca i32, align 4
  %11 = alloca i32, align 4
  store ptr %0, ptr %6, align 8, !tbaa !11
  store ptr %1, ptr %7, align 8, !tbaa !11
  store i32 %2, ptr %8, align 4, !tbaa !15
  store i32 %3, ptr %9, align 4, !tbaa !15
  store i32 %4, ptr %10, align 4, !tbaa !15
  call void @llvm.lifetime.start.p0(i64 4, ptr %11) #7
  store i32 0, ptr %11, align 4, !tbaa !15
  %12 = load i32, ptr %8, align 4, !tbaa !15
  %13 = icmp ne i32 %12, 0
  br i1 %13, label %14, label %73

14:                                               ; preds = %5
  br label %15

15:                                               ; preds = %14
  %16 = load ptr, ptr %6, align 8, !tbaa !11
  %17 = load ptr, ptr %7, align 8, !tbaa !11
  %18 = icmp ne ptr %16, %17
  br i1 %18, label %20, label %19

19:                                               ; preds = %15
  call void (ptr, i32, ptr, ...) @av_log(ptr noundef null, i32 noundef 0, ptr noundef @.str, ptr noundef @.str.27, ptr noundef @.str.2, i32 noundef 51)
  call void @abort() #8
  unreachable

20:                                               ; preds = %15
  br label %21

21:                                               ; preds = %20
  br label %22

22:                                               ; preds = %21
  br label %23

23:                                               ; preds = %22
  %24 = load ptr, ptr %6, align 8, !tbaa !11
  %25 = getelementptr inbounds nuw %struct.FFHWBaseEncodePicture, ptr %24, i32 0, i32 19
  %26 = getelementptr inbounds [2 x i32], ptr %25, i64 0, i64 0
  %27 = load i32, ptr %26, align 8, !tbaa !15
  %28 = icmp slt i32 %27, 2
  br i1 %28, label %29, label %35

29:                                               ; preds = %23
  %30 = load ptr, ptr %6, align 8, !tbaa !11
  %31 = getelementptr inbounds nuw %struct.FFHWBaseEncodePicture, ptr %30, i32 0, i32 19
  %32 = getelementptr inbounds [2 x i32], ptr %31, i64 0, i64 1
  %33 = load i32, ptr %32, align 4, !tbaa !15
  %34 = icmp slt i32 %33, 2
  br i1 %34, label %36, label %35

35:                                               ; preds = %29, %23
  call void (ptr, i32, ptr, ...) @av_log(ptr noundef null, i32 noundef 0, ptr noundef @.str, ptr noundef @.str.28, ptr noundef @.str.2, i32 noundef 53)
  call void @abort() #8
  unreachable

36:                                               ; preds = %29
  br label %37

37:                                               ; preds = %36
  br label %38

38:                                               ; preds = %37
  %39 = load ptr, ptr %7, align 8, !tbaa !11
  %40 = getelementptr inbounds nuw %struct.FFHWBaseEncodePicture, ptr %39, i32 0, i32 3
  %41 = load i64, ptr %40, align 8, !tbaa !106
  %42 = load ptr, ptr %6, align 8, !tbaa !11
  %43 = getelementptr inbounds nuw %struct.FFHWBaseEncodePicture, ptr %42, i32 0, i32 3
  %44 = load i64, ptr %43, align 8, !tbaa !106
  %45 = icmp slt i64 %41, %44
  br i1 %45, label %46, label %58

46:                                               ; preds = %38
  %47 = load ptr, ptr %7, align 8, !tbaa !11
  %48 = load ptr, ptr %6, align 8, !tbaa !11
  %49 = getelementptr inbounds nuw %struct.FFHWBaseEncodePicture, ptr %48, i32 0, i32 20
  %50 = getelementptr inbounds [2 x [2 x ptr]], ptr %49, i64 0, i64 0
  %51 = load ptr, ptr %6, align 8, !tbaa !11
  %52 = getelementptr inbounds nuw %struct.FFHWBaseEncodePicture, ptr %51, i32 0, i32 19
  %53 = getelementptr inbounds [2 x i32], ptr %52, i64 0, i64 0
  %54 = load i32, ptr %53, align 8, !tbaa !15
  %55 = add nsw i32 %54, 1
  store i32 %55, ptr %53, align 8, !tbaa !15
  %56 = sext i32 %54 to i64
  %57 = getelementptr inbounds [2 x ptr], ptr %50, i64 0, i64 %56
  store ptr %47, ptr %57, align 8, !tbaa !11
  br label %70

58:                                               ; preds = %38
  %59 = load ptr, ptr %7, align 8, !tbaa !11
  %60 = load ptr, ptr %6, align 8, !tbaa !11
  %61 = getelementptr inbounds nuw %struct.FFHWBaseEncodePicture, ptr %60, i32 0, i32 20
  %62 = getelementptr inbounds [2 x [2 x ptr]], ptr %61, i64 0, i64 1
  %63 = load ptr, ptr %6, align 8, !tbaa !11
  %64 = getelementptr inbounds nuw %struct.FFHWBaseEncodePicture, ptr %63, i32 0, i32 19
  %65 = getelementptr inbounds [2 x i32], ptr %64, i64 0, i64 1
  %66 = load i32, ptr %65, align 4, !tbaa !15
  %67 = add nsw i32 %66, 1
  store i32 %67, ptr %65, align 4, !tbaa !15
  %68 = sext i32 %66 to i64
  %69 = getelementptr inbounds [2 x ptr], ptr %62, i64 0, i64 %68
  store ptr %59, ptr %69, align 8, !tbaa !11
  br label %70

70:                                               ; preds = %58, %46
  %71 = load i32, ptr %11, align 4, !tbaa !15
  %72 = add nsw i32 %71, 1
  store i32 %72, ptr %11, align 4, !tbaa !15
  br label %73

73:                                               ; preds = %70, %5
  %74 = load i32, ptr %9, align 4, !tbaa !15
  %75 = icmp ne i32 %74, 0
  br i1 %75, label %76, label %97

76:                                               ; preds = %73
  br label %77

77:                                               ; preds = %76
  %78 = load ptr, ptr %6, align 8, !tbaa !11
  %79 = getelementptr inbounds nuw %struct.FFHWBaseEncodePicture, ptr %78, i32 0, i32 17
  %80 = load i32, ptr %79, align 4, !tbaa !175
  %81 = icmp slt i32 %80, 16
  br i1 %81, label %83, label %82

82:                                               ; preds = %77
  call void (ptr, i32, ptr, ...) @av_log(ptr noundef null, i32 noundef 0, ptr noundef @.str, ptr noundef @.str.29, ptr noundef @.str.2, i32 noundef 62)
  call void @abort() #8
  unreachable

83:                                               ; preds = %77
  br label %84

84:                                               ; preds = %83
  br label %85

85:                                               ; preds = %84
  %86 = load ptr, ptr %7, align 8, !tbaa !11
  %87 = load ptr, ptr %6, align 8, !tbaa !11
  %88 = getelementptr inbounds nuw %struct.FFHWBaseEncodePicture, ptr %87, i32 0, i32 18
  %89 = load ptr, ptr %6, align 8, !tbaa !11
  %90 = getelementptr inbounds nuw %struct.FFHWBaseEncodePicture, ptr %89, i32 0, i32 17
  %91 = load i32, ptr %90, align 4, !tbaa !175
  %92 = add nsw i32 %91, 1
  store i32 %92, ptr %90, align 4, !tbaa !175
  %93 = sext i32 %91 to i64
  %94 = getelementptr inbounds [16 x ptr], ptr %88, i64 0, i64 %93
  store ptr %86, ptr %94, align 8, !tbaa !11
  %95 = load i32, ptr %11, align 4, !tbaa !15
  %96 = add nsw i32 %95, 1
  store i32 %96, ptr %11, align 4, !tbaa !15
  br label %97

97:                                               ; preds = %85, %73
  %98 = load i32, ptr %10, align 4, !tbaa !15
  %99 = icmp ne i32 %98, 0
  br i1 %99, label %100, label %115

100:                                              ; preds = %97
  br label %101

101:                                              ; preds = %100
  %102 = load ptr, ptr %6, align 8, !tbaa !11
  %103 = getelementptr inbounds nuw %struct.FFHWBaseEncodePicture, ptr %102, i32 0, i32 21
  %104 = load ptr, ptr %103, align 8, !tbaa !176
  %105 = icmp ne ptr %104, null
  br i1 %105, label %106, label %107

106:                                              ; preds = %101
  call void (ptr, i32, ptr, ...) @av_log(ptr noundef null, i32 noundef 0, ptr noundef @.str, ptr noundef @.str.30, ptr noundef @.str.2, i32 noundef 68)
  call void @abort() #8
  unreachable

107:                                              ; preds = %101
  br label %108

108:                                              ; preds = %107
  br label %109

109:                                              ; preds = %108
  %110 = load ptr, ptr %7, align 8, !tbaa !11
  %111 = load ptr, ptr %6, align 8, !tbaa !11
  %112 = getelementptr inbounds nuw %struct.FFHWBaseEncodePicture, ptr %111, i32 0, i32 21
  store ptr %110, ptr %112, align 8, !tbaa !176
  %113 = load i32, ptr %11, align 4, !tbaa !15
  %114 = add nsw i32 %113, 1
  store i32 %114, ptr %11, align 4, !tbaa !15
  br label %115

115:                                              ; preds = %109, %97
  %116 = load i32, ptr %11, align 4, !tbaa !15
  %117 = load ptr, ptr %7, align 8, !tbaa !11
  %118 = getelementptr inbounds nuw %struct.FFHWBaseEncodePicture, ptr %117, i32 0, i32 22
  %119 = getelementptr inbounds [2 x i32], ptr %118, i64 0, i64 0
  %120 = load i32, ptr %119, align 8, !tbaa !15
  %121 = add nsw i32 %120, %116
  store i32 %121, ptr %119, align 8, !tbaa !15
  %122 = load i32, ptr %11, align 4, !tbaa !15
  %123 = load ptr, ptr %7, align 8, !tbaa !11
  %124 = getelementptr inbounds nuw %struct.FFHWBaseEncodePicture, ptr %123, i32 0, i32 22
  %125 = getelementptr inbounds [2 x i32], ptr %124, i64 0, i64 1
  %126 = load i32, ptr %125, align 4, !tbaa !15
  %127 = add nsw i32 %126, %122
  store i32 %127, ptr %125, align 4, !tbaa !15
  call void @llvm.lifetime.end.p0(i64 4, ptr %11) #7
  ret void
}