; Function Attrs: nounwind uwtable
define internal fastcc void @hw_base_encode_add_ref(ptr noundef captures(address) %0, ptr noundef %1, i32 noundef range(i32 0, 2) %2, i32 noundef range(i32 0, 2) %3, i32 noundef range(i32 0, 2) %4) unnamed_addr #1 {
  %.not = icmp eq i32 %2, 0
  br i1 %.not, label %31, label %6

6:                                                ; preds = %5
  %.not33 = icmp eq ptr %0, %1
  br i1 %.not33, label %7, label %8

7:                                                ; preds = %6
  tail call void (ptr, i32, ptr, ...) @av_log(ptr noundef null, i32 noundef 0, ptr noundef nonnull @.str, ptr noundef nonnull @.str.27, ptr noundef nonnull @.str.2, i32 noundef 51) #8
  tail call void @abort() #9
  unreachable

8:                                                ; preds = %6
  %9 = getelementptr inbounds nuw i8, ptr %0, i64 248
  %10 = load i32, ptr %9, align 8, !tbaa !111
  %11 = icmp slt i32 %10, 2
  br i1 %11, label %12, label %16

12:                                               ; preds = %8
  %13 = getelementptr inbounds nuw i8, ptr %0, i64 252
  %14 = load i32, ptr %13, align 4, !tbaa !111
  %15 = icmp slt i32 %14, 2
  br i1 %15, label %17, label %16

16:                                               ; preds = %12, %8
  tail call void (ptr, i32, ptr, ...) @av_log(ptr noundef null, i32 noundef 0, ptr noundef nonnull @.str, ptr noundef nonnull @.str.28, ptr noundef nonnull @.str.2, i32 noundef 53) #8
  tail call void @abort() #9
  unreachable

17:                                               ; preds = %12
  %18 = getelementptr inbounds nuw i8, ptr %1, i64 24
  %19 = load i64, ptr %18, align 8, !tbaa !101
  %20 = getelementptr inbounds nuw i8, ptr %0, i64 24
  %21 = load i64, ptr %20, align 8, !tbaa !101
  %22 = icmp slt i64 %19, %21
  br i1 %22, label %23, label %25

23:                                               ; preds = %17
  %24 = add nsw i32 %10, 1
  store i32 %24, ptr %9, align 8, !tbaa !111
  br label %.sink.split

25:                                               ; preds = %17
  %26 = add nsw i32 %14, 1
  store i32 %26, ptr %13, align 4, !tbaa !111
  br label %.sink.split

.sink.split:                                      ; preds = %25, %23
  %.sink = phi i32 [ %10, %23 ], [ %14, %25 ]
  %27 = phi i64 [ 256, %23 ], [ 272, %25 ]
  %28 = getelementptr inbounds nuw i8, ptr %0, i64 %27
  %29 = sext i32 %.sink to i64
  %30 = getelementptr inbounds [2 x ptr], ptr %28, i64 0, i64 %29
  store ptr %1, ptr %30, align 8, !tbaa !60
  br label %31

31:                                               ; preds = %.sink.split, %5
  %.0 = phi i32 [ 0, %5 ], [ 1, %.sink.split ]
  %.not34 = icmp eq i32 %3, 0
  br i1 %.not34, label %43, label %32

32:                                               ; preds = %31
  %33 = getelementptr inbounds nuw i8, ptr %0, i64 116
  %34 = load i32, ptr %33, align 4, !tbaa !126
  %35 = icmp slt i32 %34, 16
  br i1 %35, label %37, label %36

36:                                               ; preds = %32
  tail call void (ptr, i32, ptr, ...) @av_log(ptr noundef null, i32 noundef 0, ptr noundef nonnull @.str, ptr noundef nonnull @.str.29, ptr noundef nonnull @.str.2, i32 noundef 62) #8
  tail call void @abort() #9
  unreachable

37:                                               ; preds = %32
  %38 = getelementptr inbounds nuw i8, ptr %0, i64 120
  %39 = add nsw i32 %34, 1
  store i32 %39, ptr %33, align 4, !tbaa !126
  %40 = sext i32 %34 to i64
  %41 = getelementptr inbounds [16 x ptr], ptr %38, i64 0, i64 %40
  store ptr %1, ptr %41, align 8, !tbaa !60
  %42 = add nuw nsw i32 %.0, 1
  br label %43

43:                                               ; preds = %37, %31
  %.1 = phi i32 [ %42, %37 ], [ %.0, %31 ]
  %.not35 = icmp eq i32 %4, 0
  br i1 %.not35, label %50, label %44

44:                                               ; preds = %43
  %45 = getelementptr inbounds nuw i8, ptr %0, i64 288
  %46 = load ptr, ptr %45, align 8, !tbaa !130
  %.not36 = icmp eq ptr %46, null
  br i1 %.not36, label %48, label %47

47:                                               ; preds = %44
  tail call void (ptr, i32, ptr, ...) @av_log(ptr noundef null, i32 noundef 0, ptr noundef nonnull @.str, ptr noundef nonnull @.str.30, ptr noundef nonnull @.str.2, i32 noundef 68) #8
  tail call void @abort() #9
  unreachable

48:                                               ; preds = %44
  store ptr %1, ptr %45, align 8, !tbaa !130
  %49 = add nuw nsw i32 %.1, 1
  br label %50

50:                                               ; preds = %48, %43
  %.2 = phi i32 [ %49, %48 ], [ %.1, %43 ]
  %51 = getelementptr inbounds nuw i8, ptr %1, i64 296
  %52 = load i32, ptr %51, align 8, !tbaa !111
  %53 = add nsw i32 %52, %.2
  store i32 %53, ptr %51, align 8, !tbaa !111
  %54 = getelementptr inbounds nuw i8, ptr %1, i64 300
  %55 = load i32, ptr %54, align 4, !tbaa !111
  %56 = add nsw i32 %55, %.2
  store i32 %56, ptr %54, align 4, !tbaa !111
  ret void
}